target datalayout = "e-m:e-p270:32:32-p271:32:32-p272:64:64-i64:64-i128:128-f80:128-n8:16:32:64-S128"
target triple = "x86_64-pc-linux-gnu"

%"struct.cv::detail::CheckContext" = type { ptr, ptr, i32, i32, ptr, ptr, ptr }
%"class.cv::Mat" = type { i32, i32, i32, i32, ptr, ptr, ptr, ptr, ptr, ptr, %"struct.cv::MatSize", %"struct.cv::MatStep" }
%"struct.cv::MatSize" = type { ptr }
%"struct.cv::MatStep" = type { ptr, [2 x i64] }
%"class.cv::_InputArray" = type { i32, ptr, %"class.cv::Size_" }
%"class.cv::Size_" = type { i32, i32 }
%"class.cv::_OutputArray" = type { %"class.cv::_InputArray" }
%"class.cv::Range" = type { i32, i32 }

@"_ZZZN2cv4usac11mergePointsERKNS_11_InputArrayES3_RNS_3MatEbENK3$_0clES5_iE16__cv_check__1047" = internal constant %"struct.cv::detail::CheckContext" { ptr @.str.2, ptr @.str.1, i32 1047, i32 5, ptr @.str.3, ptr @.str.4, ptr @.str.5 }, align 8

; Function Attrs: inlinehint mustprogress nounwind uwtable
define linkonce_odr hidden void @_ZN2cv5RangeC2Eii(ptr noundef nonnull align 4 dereferenceable(8) %0, i32 noundef %1, i32 noundef %2) unnamed_addr #8 comdat align 2 {
  %4 = alloca ptr, align 8
  %5 = alloca i32, align 4
  %6 = alloca i32, align 4
  store ptr %0, ptr %4, align 8, !tbaa !287
  store i32 %1, ptr %5, align 4, !tbaa !34
  store i32 %2, ptr %6, align 4, !tbaa !34
  %7 = load ptr, ptr %4, align 8
  %8 = getelementptr inbounds nuw %"class.cv::Range", ptr %7, i32 0, i32 0
  %9 = load i32, ptr %5, align 4, !tbaa !34
  store i32 %9, ptr %8, align 4, !tbaa !289
  %10 = getelementptr inbounds nuw %"class.cv::Range", ptr %7, i32 0, i32 1
  %11 = load i32, ptr %6, align 4, !tbaa !34
  store i32 %11, ptr %10, align 4, !tbaa !291
  ret void
}

; Function Attrs: inlinehint mustprogress uwtable
define linkonce_odr hidden i64 @_ZN2cv5Range3allEv() #7 comdat align 2 {
  %1 = alloca %"class.cv::Range", align 4
  call void @_ZN2cv5RangeC2Eii(ptr noundef nonnull align 4 dereferenceable(8) %1, i32 noundef -2147483648, i32 noundef 2147483647)
  %2 = load i64, ptr %1, align 4
  ret i64 %2
}

; Function Attrs: inlinehint mustprogress nounwind uwtable
define linkonce_odr hidden void @_ZN2cv5Size_IiEC2Ev(ptr noundef nonnull align 4 dereferenceable(8) %0) unnamed_addr #8 comdat align 2 {
  %2 = alloca ptr, align 8
  store ptr %0, ptr %2, align 8, !tbaa !282
  %3 = load ptr, ptr %2, align 8
  %4 = getelementptr inbounds nuw %"class.cv::Size_", ptr %3, i32 0, i32 0
  store i32 0, ptr %4, align 4, !tbaa !284
  %5 = getelementptr inbounds nuw %"class.cv::Size_", ptr %3, i32 0, i32 1
  store i32 0, ptr %5, align 4, !tbaa !285
  ret void
}

; Function Attrs: inlinehint mustprogress nounwind uwtable
define linkonce_odr hidden void @_ZN2cv11_InputArray4initEiPKv(ptr noundef nonnull align 8 dereferenceable(24) %0, i32 noundef %1, ptr noundef %2) #8 comdat align 2 {
  %4 = alloca ptr, align 8
  %5 = alloca i32, align 4
  %6 = alloca ptr, align 8
  store ptr %0, ptr %4, align 8, !tbaa !62
  store i32 %1, ptr %5, align 4, !tbaa !34
  store ptr %2, ptr %6, align 8, !tbaa !41
  %7 = load ptr, ptr %4, align 8
  %8 = load i32, ptr %5, align 4, !tbaa !34
  %9 = getelementptr inbounds nuw %"class.cv::_InputArray", ptr %7, i32 0, i32 0
  store i32 %8, ptr %9, align 8, !tbaa !286
  %10 = load ptr, ptr %6, align 8, !tbaa !41
  %11 = getelementptr inbounds nuw %"class.cv::_InputArray", ptr %7, i32 0, i32 1
  store ptr %10, ptr %11, align 8, !tbaa !72
  ret void
}

; Function Attrs: inlinehint mustprogress uwtable
define linkonce_odr hidden void @_ZN2cv11_InputArrayC2Ev(ptr noundef nonnull align 8 dereferenceable(24) %0) unnamed_addr #7 comdat align 2 {
  %2 = alloca ptr, align 8
  store ptr %0, ptr %2, align 8, !tbaa !62
  %3 = load ptr, ptr %2, align 8
  %4 = getelementptr inbounds nuw %"class.cv::_InputArray", ptr %3, i32 0, i32 2
  call void @_ZN2cv5Size_IiEC2Ev(ptr noundef nonnull align 4 dereferenceable(8) %4)
  call void @_ZN2cv11_InputArray4initEiPKv(ptr noundef nonnull align 8 dereferenceable(24) %3, i32 noundef 0, ptr noundef null)
  ret void
}

; Function Attrs: inlinehint mustprogress uwtable
define linkonce_odr hidden void @_ZNK2cv3Mat8colRangeEii(ptr dead_on_unwind noalias writable sret(%"class.cv::Mat") align 8 %0, ptr noundef nonnull align 8 dereferenceable(96) %1, i32 noundef %2, i32 noundef %3) #7 comdat align 2 {
  %5 = alloca ptr, align 8
  %6 = alloca ptr, align 8
  %7 = alloca i32, align 4
  %8 = alloca i32, align 4
  %9 = alloca %"class.cv::Range", align 4
  %10 = alloca %"class.cv::Range", align 4
  store ptr %0, ptr %5, align 8
  store ptr %1, ptr %6, align 8, !tbaa !30
  store i32 %2, ptr %7, align 4, !tbaa !34
  store i32 %3, ptr %8, align 4, !tbaa !34
  %11 = load ptr, ptr %6, align 8
  call void @llvm.lifetime.start.p0(i64 8, ptr %9) #3
  %12 = call i64 @_ZN2cv5Range3allEv()
  store i64 %12, ptr %9, align 4
  call void @llvm.lifetime.start.p0(i64 8, ptr %10) #3
  %13 = load i32, ptr %7, align 4, !tbaa !34
  %14 = load i32, ptr %8, align 4, !tbaa !34
  call void @_ZN2cv5RangeC2Eii(ptr noundef nonnull align 4 dereferenceable(8) %10, i32 noundef %13, i32 noundef %14)
  call void @_ZN2cv3MatC1ERKS0_RKNS_5RangeES5_(ptr noundef nonnull align 8 dereferenceable(96) %0, ptr noundef nonnull align 8 dereferenceable(96) %11, ptr noundef nonnull align 4 dereferenceable(8) %9, ptr noundef nonnull align 4 dereferenceable(8) %10)
  call void @llvm.lifetime.end.p0(i64 8, ptr %10) #3
  call void @llvm.lifetime.end.p0(i64 8, ptr %9) #3
  ret void
}

; Function Attrs: inlinehint mustprogress uwtable
define linkonce_odr hidden void @_ZN2cv11_InputArrayC2ERKNS_3MatE(ptr noundef nonnull align 8 dereferenceable(24) %0, ptr noundef nonnull align 8 dereferenceable(96) %1) unnamed_addr #7 comdat align 2 {
  %3 = alloca ptr, align 8
  %4 = alloca ptr, align 8
  store ptr %0, ptr %3, align 8, !tbaa !62
  store ptr %1, ptr %4, align 8, !tbaa !30
  %5 = load ptr, ptr %3, align 8
  %6 = getelementptr inbounds nuw %"class.cv::_InputArray", ptr %5, i32 0, i32 2
  call void @_ZN2cv5Size_IiEC2Ev(ptr noundef nonnull align 4 dereferenceable(8) %6)
  %7 = load ptr, ptr %4, align 8, !tbaa !30
  call void @_ZN2cv11_InputArray4initEiPKv(ptr noundef nonnull align 8 dereferenceable(24) %5, i32 noundef 16842752, ptr noundef %7)
  ret void
}

; Function Attrs: inlinehint mustprogress nounwind uwtable
define linkonce_odr hidden noundef i32 @_ZNK2cv3Mat8channelsEv(ptr noundef nonnull align 8 dereferenceable(96) %0) #8 comdat align 2 {
  %2 = alloca ptr, align 8
  store ptr %0, ptr %2, align 8, !tbaa !30
  %3 = load ptr, ptr %2, align 8
  %4 = getelementptr inbounds nuw %"class.cv::Mat", ptr %3, i32 0, i32 0
  %5 = load i32, ptr %4, align 8, !tbaa !259
  %6 = and i32 %5, 4088
  %7 = ashr i32 %6, 3
  %8 = add nsw i32 %7, 1
  ret i32 %8
}

; Function Attrs: inlinehint mustprogress nounwind uwtable
define linkonce_odr hidden void @_ZN2cv11_InputArrayD2Ev(ptr noundef nonnull align 8 dereferenceable(24) %0) unnamed_addr #8 comdat align 2 {
  %2 = alloca ptr, align 8
  store ptr %0, ptr %2, align 8, !tbaa !62
  ret void
}

; Function Attrs: inlinehint mustprogress uwtable
define linkonce_odr hidden void @_ZN2cv12_OutputArrayC2ERNS_3MatE(ptr noundef nonnull align 8 dereferenceable(24) %0, ptr noundef nonnull align 8 dereferenceable(96) %1) unnamed_addr #7 comdat align 2 {
  %3 = alloca ptr, align 8
  %4 = alloca ptr, align 8
  store ptr %0, ptr %3, align 8, !tbaa !76
  store ptr %1, ptr %4, align 8, !tbaa !30
  %5 = load ptr, ptr %3, align 8
  call void @_ZN2cv11_InputArrayC2Ev(ptr noundef nonnull align 8 dereferenceable(24) %5)
  %6 = load ptr, ptr %4, align 8, !tbaa !30
  call void @_ZN2cv11_InputArray4initEiPKv(ptr noundef nonnull align 8 dereferenceable(24) %5, i32 noundef 33619968, ptr noundef %6)
  ret void
}

; Function Attrs: inlinehint mustprogress uwtable
define internal void @"_ZZN2cv4usac11mergePointsERKNS_11_InputArrayES3_RNS_3MatEbENK3$_0clES5_i"(ptr noundef nonnull align 1 dereferenceable(1) %0, ptr noundef nonnull align 8 dereferenceable(96) %1, i32 noundef %2) #7 align 2 personality ptr @__gxx_personality_v0 {
  %4 = alloca ptr, align 8
  %5 = alloca ptr, align 8
  %6 = alloca i32, align 4
  %7 = alloca %"class.cv::_OutputArray", align 8
  %8 = alloca ptr, align 8
  %9 = alloca i32, align 4
  %10 = alloca %"class.cv::Mat", align 8
  %11 = alloca %"class.cv::_InputArray", align 8
  %12 = alloca %"class.cv::_OutputArray", align 8
  %13 = alloca %"class.cv::Mat", align 8
  store ptr %0, ptr %4, align 8, !tbaa !41
  store ptr %1, ptr %5, align 8, !tbaa !30
  store i32 %2, ptr %6, align 4, !tbaa !34
  %14 = load ptr, ptr %5, align 8, !tbaa !30
  call void @llvm.lifetime.start.p0(i64 24, ptr %7) #3
  %15 = load ptr, ptr %5, align 8, !tbaa !30
  call void @_ZN2cv12_OutputArrayC2ERNS_3MatE(ptr noundef nonnull align 8 dereferenceable(24) %7, ptr noundef nonnull align 8 dereferenceable(96) %15)
  invoke void @_ZNK2cv3Mat9convertToERKNS_12_OutputArrayEidd(ptr noundef nonnull align 8 dereferenceable(96) %14, ptr noundef nonnull align 8 dereferenceable(24) %7, i32 noundef 5, double noundef 1.000000e+00, double noundef 0.000000e+00)
          to label %16 unwind label %28

16:                                               ; preds = %3
  call void @_ZN2cv11_InputArrayD2Ev(ptr noundef nonnull align 8 dereferenceable(24) %7) #3
  call void @llvm.lifetime.end.p0(i64 24, ptr %7) #3
  %17 = load ptr, ptr %5, align 8, !tbaa !30
  %18 = call noundef i32 @_ZNK2cv3Mat8channelsEv(ptr noundef nonnull align 8 dereferenceable(96) %17)
  %19 = icmp sgt i32 %18, 1
  br i1 %19, label %20, label %36

20:                                               ; preds = %16
  call void @llvm.lifetime.start.p0(i64 96, ptr %10) #3
  %21 = load ptr, ptr %5, align 8, !tbaa !30
  %22 = load ptr, ptr %5, align 8, !tbaa !30
  %23 = call noundef i64 @_ZNK2cv3Mat5totalEv(ptr noundef nonnull align 8 dereferenceable(96) %22)
  %24 = trunc i64 %23 to i32
  call void @_ZNK2cv3Mat7reshapeEii(ptr dead_on_unwind writable sret(%"class.cv::Mat") align 8 %10, ptr noundef nonnull align 8 dereferenceable(96) %21, i32 noundef 1, i32 noundef %24)
  %25 = load ptr, ptr %5, align 8, !tbaa !30
  %26 = invoke noundef nonnull align 8 dereferenceable(96) ptr @_ZN2cv3MataSEOS0_(ptr noundef nonnull align 8 dereferenceable(96) %25, ptr noundef nonnull align 8 dereferenceable(96) %10)
          to label %27 unwind label %32

27:                                               ; preds = %20
  call void @_ZN2cv3MatD1Ev(ptr noundef nonnull align 8 dereferenceable(96) %10) #3
  call void @llvm.lifetime.end.p0(i64 96, ptr %10) #3
  br label %36

28:                                               ; preds = %3
  %29 = landingpad { ptr, i32 }
          cleanup
  %30 = extractvalue { ptr, i32 } %29, 0
  store ptr %30, ptr %8, align 8
  %31 = extractvalue { ptr, i32 } %29, 1
  store i32 %31, ptr %9, align 4
  call void @_ZN2cv11_InputArrayD2Ev(ptr noundef nonnull align 8 dereferenceable(24) %7) #3
  call void @llvm.lifetime.end.p0(i64 24, ptr %7) #3
  br label %89

32:                                               ; preds = %20
  %33 = landingpad { ptr, i32 }
          cleanup
  %34 = extractvalue { ptr, i32 } %33, 0
  store ptr %34, ptr %8, align 8
  %35 = extractvalue { ptr, i32 } %33, 1
  store i32 %35, ptr %9, align 4
  call void @_ZN2cv3MatD1Ev(ptr noundef nonnull align 8 dereferenceable(96) %10) #3
  call void @llvm.lifetime.end.p0(i64 96, ptr %10) #3
  br label %89

36:                                               ; preds = %27, %16
  %37 = load ptr, ptr %5, align 8, !tbaa !30
  %38 = getelementptr inbounds nuw %"class.cv::Mat", ptr %37, i32 0, i32 2
  %39 = load i32, ptr %38, align 8, !tbaa !64
  %40 = load ptr, ptr %5, align 8, !tbaa !30
  %41 = getelementptr inbounds nuw %"class.cv::Mat", ptr %40, i32 0, i32 3
  %42 = load i32, ptr %41, align 4, !tbaa !75
  %43 = icmp slt i32 %39, %42
  br i1 %43, label %44, label %58

44:                                               ; preds = %36
  call void @llvm.lifetime.start.p0(i64 24, ptr %11) #3
  %45 = load ptr, ptr %5, align 8, !tbaa !30
  call void @_ZN2cv11_InputArrayC2ERKNS_3MatE(ptr noundef nonnull align 8 dereferenceable(24) %11, ptr noundef nonnull align 8 dereferenceable(96) %45)
  call void @llvm.lifetime.start.p0(i64 24, ptr %12) #3
  %46 = load ptr, ptr %5, align 8, !tbaa !30
  invoke void @_ZN2cv12_OutputArrayC2ERNS_3MatE(ptr noundef nonnull align 8 dereferenceable(24) %12, ptr noundef nonnull align 8 dereferenceable(96) %46)
          to label %47 unwind label %49

47:                                               ; preds = %44
  invoke void @_ZN2cv9transposeERKNS_11_InputArrayERKNS_12_OutputArrayE(ptr noundef nonnull align 8 dereferenceable(24) %11, ptr noundef nonnull align 8 dereferenceable(24) %12)
          to label %48 unwind label %53

48:                                               ; preds = %47
  call void @_ZN2cv11_InputArrayD2Ev(ptr noundef nonnull align 8 dereferenceable(24) %12) #3
  call void @llvm.lifetime.end.p0(i64 24, ptr %12) #3
  call void @_ZN2cv11_InputArrayD2Ev(ptr noundef nonnull align 8 dereferenceable(24) %11) #3
  call void @llvm.lifetime.end.p0(i64 24, ptr %11) #3
  br label %58

49:                                               ; preds = %44
  %50 = landingpad { ptr, i32 }
          cleanup
  %51 = extractvalue { ptr, i32 } %50, 0
  store ptr %51, ptr %8, align 8
  %52 = extractvalue { ptr, i32 } %50, 1
  store i32 %52, ptr %9, align 4
  br label %57

53:                                               ; preds = %47
  %54 = landingpad { ptr, i32 }
          cleanup
  %55 = extractvalue { ptr, i32 } %54, 0
  store ptr %55, ptr %8, align 8
  %56 = extractvalue { ptr, i32 } %54, 1
  store i32 %56, ptr %9, align 4
  call void @_ZN2cv11_InputArrayD2Ev(ptr noundef nonnull align 8 dereferenceable(24) %12) #3
  br label %57

57:                                               ; preds = %53, %49
  call void @llvm.lifetime.end.p0(i64 24, ptr %12) #3
  call void @_ZN2cv11_InputArrayD2Ev(ptr noundef nonnull align 8 dereferenceable(24) %11) #3
  call void @llvm.lifetime.end.p0(i64 24, ptr %11) #3
  br label %89

58:                                               ; preds = %48, %36
  br label %59

59:                                               ; preds = %58
  %60 = load ptr, ptr %5, align 8, !tbaa !30
  %61 = getelementptr inbounds nuw %"class.cv::Mat", ptr %60, i32 0, i32 3
  %62 = load i32, ptr %61, align 4, !tbaa !75
  %63 = load i32, ptr %6, align 4, !tbaa !34
  %64 = icmp sge i32 %62, %63
  br i1 %64, label %65, label %66

65:                                               ; preds = %59
  br label %71

66:                                               ; preds = %59
  %67 = load ptr, ptr %5, align 8, !tbaa !30
  %68 = getelementptr inbounds nuw %"class.cv::Mat", ptr %67, i32 0, i32 3
  %69 = load i32, ptr %68, align 4, !tbaa !75
  %70 = load i32, ptr %6, align 4, !tbaa !34
  call void @_ZN2cv6detail17check_failed_autoEiiRKNS0_12CheckContextE(i32 noundef %69, i32 noundef %70, ptr noundef nonnull align 8 dereferenceable(48) @"_ZZZN2cv4usac11mergePointsERKNS_11_InputArrayES3_RNS_3MatEbENK3$_0clES5_iE16__cv_check__1047") #22
  unreachable

71:                                               ; preds = %65
  br label %72

72:                                               ; preds = %71
  %73 = load ptr, ptr %5, align 8, !tbaa !30
  %74 = getelementptr inbounds nuw %"class.cv::Mat", ptr %73, i32 0, i32 3
  %75 = load i32, ptr %74, align 4, !tbaa !75
  %76 = load i32, ptr %6, align 4, !tbaa !34
  %77 = icmp ne i32 %75, %76
  br i1 %77, label %78, label %88

78:                                               ; preds = %72
  call void @llvm.lifetime.start.p0(i64 96, ptr %13) #3
  %79 = load ptr, ptr %5, align 8, !tbaa !30
  %80 = load i32, ptr %6, align 4, !tbaa !34
  call void @_ZNK2cv3Mat8colRangeEii(ptr dead_on_unwind writable sret(%"class.cv::Mat") align 8 %13, ptr noundef nonnull align 8 dereferenceable(96) %79, i32 noundef 0, i32 noundef %80)
  %81 = load ptr, ptr %5, align 8, !tbaa !30
  %82 = invoke noundef nonnull align 8 dereferenceable(96) ptr @_ZN2cv3MataSEOS0_(ptr noundef nonnull align 8 dereferenceable(96) %81, ptr noundef nonnull align 8 dereferenceable(96) %13)
          to label %83 unwind label %84

83:                                               ; preds = %78
  call void @_ZN2cv3MatD1Ev(ptr noundef nonnull align 8 dereferenceable(96) %13) #3
  call void @llvm.lifetime.end.p0(i64 96, ptr %13) #3
  br label %88

84:                                               ; preds = %78
  %85 = landingpad { ptr, i32 }
          cleanup
  %86 = extractvalue { ptr, i32 } %85, 0
  store ptr %86, ptr %8, align 8
  %87 = extractvalue { ptr, i32 } %85, 1
  store i32 %87, ptr %9, align 4
  call void @_ZN2cv3MatD1Ev(ptr noundef nonnull align 8 dereferenceable(96) %13) #3
  call void @llvm.lifetime.end.p0(i64 96, ptr %13) #3
  br label %89

88:                                               ; preds = %83, %72
  ret void

89:                                               ; preds = %84, %57, %32, %28
  %90 = load ptr, ptr %8, align 8
  %91 = load i32, ptr %9, align 4
  %92 = insertvalue { ptr, i32 } poison, ptr %90, 0
  %93 = insertvalue { ptr, i32 } %92, i32 %91, 1
  resume { ptr, i32 } %93
}