; Function Attrs: inlinehint mustprogress uwtable
define internal fastcc void @"_ZZN2cv4usac11mergePointsERKNS_11_InputArrayES3_RNS_3MatEbENK3$_0clES5_i"(ptr noundef nonnull align 8 dereferenceable(96) %0, i32 noundef range(i32 2, 4) %1) unnamed_addr #8 align 2 personality ptr @__gxx_personality_v0 {
  %3 = alloca %"class.cv::Range", align 8
  %4 = alloca %"class.cv::Range", align 4
  %5 = alloca %"class.cv::_OutputArray", align 8
  %6 = alloca %"class.cv::Mat", align 8
  %7 = alloca %"class.cv::_InputArray", align 8
  %8 = alloca %"class.cv::_OutputArray", align 8
  %9 = alloca %"class.cv::Mat", align 8
  call void @llvm.lifetime.start.p0(i64 24, ptr nonnull %5) #27
  %10 = getelementptr inbounds nuw i8, ptr %5, i64 8
  %11 = getelementptr inbounds nuw i8, ptr %5, i64 16
  store i64 0, ptr %11, align 8
  store i32 33619968, ptr %5, align 8, !tbaa !65
  store ptr %0, ptr %10, align 8, !tbaa !57
  call void @_ZNK2cv3Mat9convertToERKNS_12_OutputArrayEidd(ptr noundef nonnull align 8 dereferenceable(96) %0, ptr noundef nonnull align 8 dereferenceable(24) %5, i32 noundef 5, double noundef 1.000000e+00, double noundef 0.000000e+00)
  call void @llvm.lifetime.end.p0(i64 24, ptr nonnull %5) #27
  %12 = load i32, ptr %0, align 8, !tbaa !74
  %13 = and i32 %12, 4088
  %.not1 = icmp eq i32 %13, 0
  br i1 %.not1, label %21, label %14

14:                                               ; preds = %2
  call void @llvm.lifetime.start.p0(i64 96, ptr nonnull %6) #27
  %15 = call noundef i64 @_ZNK2cv3Mat5totalEv(ptr noundef nonnull align 8 dereferenceable(96) %0)
  %16 = trunc i64 %15 to i32
  call void @_ZNK2cv3Mat7reshapeEii(ptr dead_on_unwind nonnull writable sret(%"class.cv::Mat") align 8 %6, ptr noundef nonnull align 8 dereferenceable(96) %0, i32 noundef 1, i32 noundef %16)
  %17 = invoke noundef nonnull align 8 dereferenceable(96) ptr @_ZN2cv3MataSEOS0_(ptr noundef nonnull align 8 dereferenceable(96) %0, ptr noundef nonnull align 8 dereferenceable(96) %6)
          to label %18 unwind label %19

18:                                               ; preds = %14
  call void @_ZN2cv3MatD1Ev(ptr noundef nonnull align 8 dereferenceable(96) %6) #27
  call void @llvm.lifetime.end.p0(i64 96, ptr nonnull %6) #27
  br label %21

19:                                               ; preds = %14
  %20 = landingpad { ptr, i32 }
          cleanup
  call void @_ZN2cv3MatD1Ev(ptr noundef nonnull align 8 dereferenceable(96) %6) #27
  call void @llvm.lifetime.end.p0(i64 96, ptr nonnull %6) #27
  br label %44

21:                                               ; preds = %18, %2
  %22 = getelementptr inbounds nuw i8, ptr %0, i64 8
  %23 = load i32, ptr %22, align 8, !tbaa !66
  %24 = getelementptr inbounds nuw i8, ptr %0, i64 12
  %25 = load i32, ptr %24, align 4, !tbaa !75
  %26 = icmp slt i32 %23, %25
  br i1 %26, label %27, label %33

27:                                               ; preds = %21
  call void @llvm.lifetime.start.p0(i64 24, ptr nonnull %7) #27
  %28 = getelementptr inbounds nuw i8, ptr %7, i64 16
  store i32 0, ptr %28, align 8, !tbaa !63
  %29 = getelementptr inbounds nuw i8, ptr %7, i64 20
  store i32 0, ptr %29, align 4, !tbaa !64
  store i32 16842752, ptr %7, align 8, !tbaa !65
  %30 = getelementptr inbounds nuw i8, ptr %7, i64 8
  store ptr %0, ptr %30, align 8, !tbaa !57
  call void @llvm.lifetime.start.p0(i64 24, ptr nonnull %8) #27
  %31 = getelementptr inbounds nuw i8, ptr %8, i64 8
  %32 = getelementptr inbounds nuw i8, ptr %8, i64 16
  store i64 0, ptr %32, align 8
  store i32 33619968, ptr %8, align 8, !tbaa !65
  store ptr %0, ptr %31, align 8, !tbaa !57
  call void @_ZN2cv9transposeERKNS_11_InputArrayERKNS_12_OutputArrayE(ptr noundef nonnull align 8 dereferenceable(24) %7, ptr noundef nonnull align 8 dereferenceable(24) %8)
  call void @llvm.lifetime.end.p0(i64 24, ptr nonnull %8) #27
  call void @llvm.lifetime.end.p0(i64 24, ptr nonnull %7) #27
  %.pre = load i32, ptr %24, align 4, !tbaa !75
  br label %33

33:                                               ; preds = %21, %27
  %34 = phi i32 [ %25, %21 ], [ %.pre, %27 ]
  %.not = icmp slt i32 %34, %1
  br i1 %.not, label %35, label %36

35:                                               ; preds = %33
  call void @_ZN2cv6detail17check_failed_autoEiiRKNS0_12CheckContextE(i32 noundef %34, i32 noundef %1, ptr noundef nonnull align 8 dereferenceable(48) @"_ZZZN2cv4usac11mergePointsERKNS_11_InputArrayES3_RNS_3MatEbENK3$_0clES5_iE16__cv_check__1047") #28
  unreachable

36:                                               ; preds = %33
  %.not26 = icmp eq i32 %34, %1
  br i1 %.not26, label %43, label %37

37:                                               ; preds = %36
  call void @llvm.lifetime.start.p0(i64 96, ptr nonnull %9) #27
  call void @llvm.lifetime.start.p0(i64 8, ptr nonnull %3) #27, !noalias !76
  store i64 9223372034707292160, ptr %3, align 8, !noalias !76
  call void @llvm.lifetime.start.p0(i64 8, ptr nonnull %4) #27, !noalias !76
  store i32 0, ptr %4, align 4, !tbaa !79, !noalias !76
  %38 = getelementptr inbounds nuw i8, ptr %4, i64 4
  store i32 %1, ptr %38, align 4, !tbaa !81, !noalias !76
  call void @_ZN2cv3MatC1ERKS0_RKNS_5RangeES5_(ptr noundef nonnull align 8 dereferenceable(96) %9, ptr noundef nonnull align 8 dereferenceable(96) %0, ptr noundef nonnull align 4 dereferenceable(8) %3, ptr noundef nonnull align 4 dereferenceable(8) %4)
  call void @llvm.lifetime.end.p0(i64 8, ptr nonnull %4) #27, !noalias !76
  call void @llvm.lifetime.end.p0(i64 8, ptr nonnull %3) #27, !noalias !76
  %39 = invoke noundef nonnull align 8 dereferenceable(96) ptr @_ZN2cv3MataSEOS0_(ptr noundef nonnull align 8 dereferenceable(96) %0, ptr noundef nonnull align 8 dereferenceable(96) %9)
          to label %40 unwind label %41

40:                                               ; preds = %37
  call void @_ZN2cv3MatD1Ev(ptr noundef nonnull align 8 dereferenceable(96) %9) #27
  call void @llvm.lifetime.end.p0(i64 96, ptr nonnull %9) #27
  br label %43

41:                                               ; preds = %37
  %42 = landingpad { ptr, i32 }
          cleanup
  call void @_ZN2cv3MatD1Ev(ptr noundef nonnull align 8 dereferenceable(96) %9) #27
  call void @llvm.lifetime.end.p0(i64 96, ptr nonnull %9) #27
  br label %44

43:                                               ; preds = %40, %36
  ret void

44:                                               ; preds = %41, %19
  %.pn27 = phi { ptr, i32 } [ %42, %41 ], [ %20, %19 ]
  resume { ptr, i32 } %.pn27
}